; Function Attrs: mustprogress nofree norecurse nosync nounwind willreturn memory(none) uwtable
define noundef range(i32 2, 7) i32 @_ZN5ZXing6Pdf4177Encoder41GetRecommendedMinimumErrorCorrectionLevelEi(i32 noundef %0) local_unnamed_addr #5 align 2 {
  %2 = icmp slt i32 %0, 41
  br i1 %2, label %9, label %3

3:                                                ; preds = %1
  %4 = icmp samesign ult i32 %0, 161
  br i1 %4, label %9, label %5

5:                                                ; preds = %3
  %6 = icmp samesign ult i32 %0, 321
  br i1 %6, label %9, label %7

7:                                                ; preds = %5
  %8 = icmp samesign ult i32 %0, 864
  %. = select i1 %8, i32 5, i32 6
  br label %9

9:                                                ; preds = %7, %5, %3, %1
  %.0 = phi i32 [ 2, %1 ], [ 3, %3 ], [ 4, %5 ], [ %., %7 ]
  ret i32 %.0
}